; Function Attrs: mustprogress nofree norecurse nosync nounwind willreturn memory(read, inaccessiblemem: none) uwtable
define dso_local noundef zeroext i1 @_ZN4llvm16AArch64InstrInfo9isGPRCopyERKNS_12MachineInstrE(ptr nocapture noundef nonnull readonly align 8 dereferenceable(70) %0) local_unnamed_addr #4 align 2 {
  %2 = getelementptr inbounds nuw i8, ptr %0, i64 68
  %3 = load i16, ptr %2, align 4
  switch i16 %3, label %53 [
    i16 19, label %4
    i16 4877, label %41
    i16 1465, label %47
  ]

4:                                                ; preds = %1
  %5 = getelementptr inbounds nuw i8, ptr %0, i64 32
  %6 = load ptr, ptr %5, align 8
  %7 = getelementptr inbounds nuw i8, ptr %6, i64 4
  %8 = load i32, ptr %7, align 4
  %9 = add i32 %8, -1
  %10 = icmp ult i32 %9, 1073741823
  br i1 %10, label %11, label %_ZNK4llvm19TargetRegisterClass8containsENS_8RegisterE.exit10

11:                                               ; preds = %4
  %12 = load ptr, ptr @_ZN4llvm7AArch6413GPR32RegClassE, align 8
  %13 = lshr i32 %8, 3
  %14 = getelementptr inbounds nuw i8, ptr %12, i64 22
  %15 = load i16, ptr %14, align 2
  %16 = zext i16 %15 to i32
  %.not.i.i = icmp ult i32 %13, %16
  br i1 %.not.i.i, label %_ZNK4llvm19TargetRegisterClass8containsENS_8RegisterE.exit, label %.thread12

_ZNK4llvm19TargetRegisterClass8containsENS_8RegisterE.exit: ; preds = %11
  %17 = and i32 %8, 7
  %18 = getelementptr inbounds nuw i8, ptr %12, i64 8
  %19 = load ptr, ptr %18, align 8
  %20 = zext nneg i32 %13 to i64
  %21 = getelementptr inbounds i8, ptr %19, i64 %20
  %22 = load i8, ptr %21, align 1
  %23 = zext i8 %22 to i32
  %24 = shl nuw nsw i32 1, %17
  %25 = and i32 %24, %23
  %.not = icmp eq i32 %25, 0
  br i1 %.not, label %.thread12, label %_ZNK4llvm19TargetRegisterClass8containsENS_8RegisterE.exit10

.thread12:                                        ; preds = %_ZNK4llvm19TargetRegisterClass8containsENS_8RegisterE.exit, %11
  %26 = load ptr, ptr @_ZN4llvm7AArch6413GPR64RegClassE, align 8
  %27 = getelementptr inbounds nuw i8, ptr %26, i64 22
  %28 = load i16, ptr %27, align 2
  %29 = zext i16 %28 to i32
  %.not.i.i9 = icmp ult i32 %13, %29
  br i1 %.not.i.i9, label %30, label %_ZNK4llvm19TargetRegisterClass8containsENS_8RegisterE.exit10

30:                                               ; preds = %.thread12
  %31 = and i32 %8, 7
  %32 = getelementptr inbounds nuw i8, ptr %26, i64 8
  %33 = load ptr, ptr %32, align 8
  %34 = zext nneg i32 %13 to i64
  %35 = getelementptr inbounds i8, ptr %33, i64 %34
  %36 = load i8, ptr %35, align 1
  %37 = zext i8 %36 to i32
  %38 = shl nuw nsw i32 1, %31
  %39 = and i32 %38, %37
  %40 = icmp ne i32 %39, 0
  br label %_ZNK4llvm19TargetRegisterClass8containsENS_8RegisterE.exit10

41:                                               ; preds = %1
  %42 = getelementptr inbounds nuw i8, ptr %0, i64 32
  %43 = load ptr, ptr %42, align 8
  %44 = getelementptr inbounds i8, ptr %43, i64 36
  %45 = load i32, ptr %44, align 4
  %46 = icmp eq i32 %45, 12
  br i1 %46, label %_ZNK4llvm19TargetRegisterClass8containsENS_8RegisterE.exit10, label %53

47:                                               ; preds = %1
  %48 = getelementptr inbounds nuw i8, ptr %0, i64 32
  %49 = load ptr, ptr %48, align 8
  %50 = getelementptr inbounds i8, ptr %49, i64 80
  %51 = load i64, ptr %50, align 8
  %52 = icmp eq i64 %51, 0
  br i1 %52, label %_ZNK4llvm19TargetRegisterClass8containsENS_8RegisterE.exit10, label %53

53:                                               ; preds = %47, %41, %1
  br label %_ZNK4llvm19TargetRegisterClass8containsENS_8RegisterE.exit10

_ZNK4llvm19TargetRegisterClass8containsENS_8RegisterE.exit10: ; preds = %30, %.thread12, %4, %47, %41, %_ZNK4llvm19TargetRegisterClass8containsENS_8RegisterE.exit, %53
  %.0 = phi i1 [ false, %53 ], [ true, %_ZNK4llvm19TargetRegisterClass8containsENS_8RegisterE.exit ], [ true, %41 ], [ true, %47 ], [ %40, %30 ], [ false, %.thread12 ], [ false, %4 ]
  ret i1 %.0
}